; Function Attrs: nounwind uwtable
define hidden void @ma_mutex_lock(ptr noundef %0) local_unnamed_addr #7 {
  %2 = icmp eq ptr %0, null
  br i1 %2, label %5, label %3

3:                                                ; preds = %1
  %4 = tail call i32 @pthread_mutex_lock(ptr noundef nonnull %0) #72
  br label %5

5:                                                ; preds = %1, %3
  ret void
}